; Function Attrs: nounwind uwtable
define internal range(i32 -1, 1) i32 @H5FD__splitter_query(ptr noundef readonly captures(address_is_null) %0, ptr noundef %1) #0 {
  %3 = load i8, ptr @H5FD_init_g, align 1, !tbaa !3, !range !7, !noundef !8
  %4 = trunc nuw i8 %3 to i1
  %5 = load i8, ptr @H5_libterm_g, align 1, !range !7
  %6 = trunc nuw i8 %5 to i1
  %7 = xor i1 %6, true
  %8 = select i1 %4, i1 true, i1 %7
  br i1 %8, label %9, label %21, !prof !9

9:                                                ; preds = %2
  %.not = icmp eq ptr %0, null
  br i1 %.not, label %19, label %10

10:                                               ; preds = %9
  %11 = getelementptr inbounds nuw i8, ptr %0, i64 8304
  %12 = load ptr, ptr %11, align 8, !tbaa !33
  %13 = tail call i32 @H5FDquery(ptr noundef %12, ptr noundef %1) #12
  %14 = icmp slt i32 %13, 0
  br i1 %14, label %15, label %21

15:                                               ; preds = %10
  %16 = load i64, ptr @H5E_VFL_g, align 8, !tbaa !10
  %17 = load i64, ptr @H5E_CANTLOCK_g, align 8, !tbaa !10
  %18 = tail call i32 (ptr, ptr, i32, i64, i64, ptr, ...) @H5E_printf_stack(ptr noundef nonnull @.str, ptr noundef nonnull @__func__.H5FD__splitter_query, i32 noundef 1346, i64 noundef %16, i64 noundef %17, ptr noundef nonnull @.str.46) #12
  br label %21

19:                                               ; preds = %9
  %.not9 = icmp eq ptr %1, null
  br i1 %.not9, label %21, label %20

20:                                               ; preds = %19
  store i64 0, ptr %1, align 8, !tbaa !10
  br label %21

21:                                               ; preds = %15, %19, %20, %10, %2
  %.0 = phi i32 [ -1, %15 ], [ 0, %10 ], [ 0, %20 ], [ 0, %19 ], [ 0, %2 ]
  ret i32 %.0
}